target datalayout = "e-m:e-p270:32:32-p271:32:32-p272:64:64-i64:64-i128:128-f80:128-n8:16:32:64-S128"
target triple = "x86_64-pc-linux-gnu"

%struct.quic_fifd_st = type { ptr, ptr, ptr, ptr, ptr, ptr, ptr, ptr, ptr, ptr, ptr, ptr, ptr }
%struct.quic_txpim_pkt_st = type { %struct.ossl_ackm_tx_pkt_st, ptr, ptr, i8, i8 }
%struct.ossl_ackm_tx_pkt_st = type { i64, i64, %struct.OSSL_TIME, i64, i8, ptr, ptr, ptr, ptr, %struct.anon, ptr, ptr }
%struct.OSSL_TIME = type { i64 }
%struct.anon = type { ptr, ptr }
%struct.quic_cfq_item_st = type { ptr, ptr }

; Function Attrs: nounwind uwtable
define internal void @on_discarded(ptr noundef %0) #0 {
  %2 = alloca ptr, align 8
  %3 = alloca ptr, align 8
  %4 = alloca ptr, align 8
  %5 = alloca ptr, align 8
  %6 = alloca ptr, align 8
  store ptr %0, ptr %2, align 8, !tbaa !14
  call void @llvm.lifetime.start.p0(i64 8, ptr %3) #5
  %7 = load ptr, ptr %2, align 8, !tbaa !14
  store ptr %7, ptr %3, align 8, !tbaa !29
  call void @llvm.lifetime.start.p0(i64 8, ptr %4) #5
  %8 = load ptr, ptr %3, align 8, !tbaa !29
  %9 = getelementptr inbounds nuw %struct.quic_txpim_pkt_st, ptr %8, i32 0, i32 2
  %10 = load ptr, ptr %9, align 8, !tbaa !31
  store ptr %10, ptr %4, align 8, !tbaa !3
  call void @llvm.lifetime.start.p0(i64 8, ptr %5) #5
  call void @llvm.lifetime.start.p0(i64 8, ptr %6) #5
  %11 = load ptr, ptr %3, align 8, !tbaa !29
  %12 = getelementptr inbounds nuw %struct.quic_txpim_pkt_st, ptr %11, i32 0, i32 1
  %13 = load ptr, ptr %12, align 8, !tbaa !46
  store ptr %13, ptr %5, align 8, !tbaa !47
  br label %14

14:                                               ; preds = %25, %1
  %15 = load ptr, ptr %5, align 8, !tbaa !47
  %16 = icmp ne ptr %15, null
  br i1 %16, label %17, label %27

17:                                               ; preds = %14
  %18 = load ptr, ptr %5, align 8, !tbaa !47
  %19 = getelementptr inbounds nuw %struct.quic_cfq_item_st, ptr %18, i32 0, i32 1
  %20 = load ptr, ptr %19, align 8, !tbaa !48
  store ptr %20, ptr %6, align 8, !tbaa !47
  %21 = load ptr, ptr %4, align 8, !tbaa !3
  %22 = getelementptr inbounds nuw %struct.quic_fifd_st, ptr %21, i32 0, i32 0
  %23 = load ptr, ptr %22, align 8, !tbaa !15
  %24 = load ptr, ptr %5, align 8, !tbaa !47
  call void @ossl_quic_cfq_release(ptr noundef %23, ptr noundef %24)
  br label %25

25:                                               ; preds = %17
  %26 = load ptr, ptr %6, align 8, !tbaa !47
  store ptr %26, ptr %5, align 8, !tbaa !47
  br label %14, !llvm.loop !67

27:                                               ; preds = %14
  %28 = load ptr, ptr %4, align 8, !tbaa !3
  %29 = getelementptr inbounds nuw %struct.quic_fifd_st, ptr %28, i32 0, i32 2
  %30 = load ptr, ptr %29, align 8, !tbaa !18
  %31 = load ptr, ptr %3, align 8, !tbaa !29
  call void @ossl_quic_txpim_pkt_release(ptr noundef %30, ptr noundef %31)
  call void @llvm.lifetime.end.p0(i64 8, ptr %6) #5
  call void @llvm.lifetime.end.p0(i64 8, ptr %5) #5
  call void @llvm.lifetime.end.p0(i64 8, ptr %4) #5
  call void @llvm.lifetime.end.p0(i64 8, ptr %3) #5
  ret void
}