; Function Attrs: nounwind uwtable
define internal void @on_discarded(ptr noundef %0) #2 {
  %2 = getelementptr inbounds nuw i8, ptr %0, i64 112
  %3 = load ptr, ptr %2, align 8, !tbaa !23
  %4 = getelementptr inbounds nuw i8, ptr %0, i64 104
  %5 = load ptr, ptr %4, align 8, !tbaa !46
  %.not10 = icmp eq ptr %5, null
  br i1 %.not10, label %._crit_edge, label %.lr.ph

.lr.ph:                                           ; preds = %1, %.lr.ph
  %.011 = phi ptr [ %7, %.lr.ph ], [ %5, %1 ]
  %6 = getelementptr inbounds nuw i8, ptr %.011, i64 8
  %7 = load ptr, ptr %6, align 8, !tbaa !47
  %8 = load ptr, ptr %3, align 8, !tbaa !3
  tail call void @ossl_quic_cfq_release(ptr noundef %8, ptr noundef nonnull %.011) #5
  %.not = icmp eq ptr %7, null
  br i1 %.not, label %._crit_edge, label %.lr.ph, !llvm.loop !52

._crit_edge:                                      ; preds = %.lr.ph, %1
  %9 = getelementptr inbounds nuw i8, ptr %3, i64 16
  %10 = load ptr, ptr %9, align 8, !tbaa !12
  tail call void @ossl_quic_txpim_pkt_release(ptr noundef %10, ptr noundef %0) #5
  ret void
}